; Function Attrs: mustprogress nofree norecurse nosync nounwind willreturn memory(read, inaccessiblemem: none) uwtable
define dso_local { ptr, i64 } @_ZNKSt3__16chrono9time_zone6__nameB8ne210000Ev(ptr noundef nonnull readonly align 8 captures(none) dereferenceable(8) %0) local_unnamed_addr #4 align 2 {
  %2 = load ptr, ptr %0, align 8, !tbaa !13
  %3 = load i8, ptr %2, align 8
  %4 = and i8 %3, 1
  %.not.i.i.i.i = icmp eq i8 %4, 0
  %5 = getelementptr inbounds nuw i8, ptr %2, i64 16
  %6 = load ptr, ptr %5, align 8
  %7 = getelementptr inbounds nuw i8, ptr %2, i64 1
  %8 = select i1 %.not.i.i.i.i, ptr %7, ptr %6
  %9 = getelementptr inbounds nuw i8, ptr %2, i64 8
  %10 = load i64, ptr %9, align 8
  %11 = lshr i8 %3, 1
  %12 = zext nneg i8 %11 to i64
  %13 = select i1 %.not.i.i.i.i, i64 %12, i64 %10
  %.fca.0.insert.i.i = insertvalue { ptr, i64 } poison, ptr %8, 0
  %.fca.1.insert.i.i = insertvalue { ptr, i64 } %.fca.0.insert.i.i, i64 %13, 1
  ret { ptr, i64 } %.fca.1.insert.i.i
}